(dp1
S'SimHei'
p2
cnumpy.core.multiarray
_reconstruct
p3
(cnumpy
ndarray
p4
(I0
tS'b'
tRp5
(I1
(I2
tcnumpy
dtype
p6
(S'f8'
I0
I1
tRp7
(I3
S'<'
NNNI-1
I-1
I0
tbI00
S'\xbe\x0f\xda\xa8\xfa\xfe\xef?\x93Q\xeb]\xd4\xf4\xff?'
tbs.